target datalayout = "e-m:e-p270:32:32-p271:32:32-p272:64:64-i64:64-i128:128-f80:128-n8:16:32:64-S128"
target triple = "x86_64-pc-linux-gnu"

@proto_register_vssmonitoring.ett = internal global [1 x ptr] [ptr @ett_vssmonitoring], align 8
@.str.9 = private unnamed_addr constant [32 x i8] c"VSS Monitoring Ethernet trailer\00", align 1
@.str.10 = private unnamed_addr constant [15 x i8] c"VSS Monitoring\00", align 1
@.str.11 = private unnamed_addr constant [14 x i8] c"vssmonitoring\00", align 1
@proto_vssmonitoring = internal global i32 0, align 4
@.str.12 = private unnamed_addr constant [15 x i8] c"use_heuristics\00", align 1
@.str.13 = private unnamed_addr constant [26 x i8] c"dissect_portstamping_only\00", align 1
@.str.14 = private unnamed_addr constant [41 x i8] c"Dissect trailers with only port stamping\00", align 1
@.str.15 = private unnamed_addr constant [176 x i8] c"Whether the VSS Monitoring dissector should attempt to dissect trailers with no timestamp, only port stamping.  Note that this can result in a large number of false positives.\00", align 1
@vss_dissect_portstamping_only = internal global i8 0, align 1
@.str.16 = private unnamed_addr constant [20 x i8] c"two_byte_portstamps\00", align 1
@.str.17 = private unnamed_addr constant [21 x i8] c"Two byte port stamps\00", align 1
@.str.18 = private unnamed_addr constant [119 x i8] c"Whether the VSS Monitoring dissector should assume that the port stamp is two bytes, instead of the standard one byte.\00", align 1
@vss_two_byte_portstamps = internal global i8 0, align 1

; Function Attrs: null_pointer_is_valid sspstrong uwtable
define hidden void @proto_register_vssmonitoring() #0 {
  %1 = alloca ptr, align 8
  call void @llvm.lifetime.start.p0(i64 8, ptr %1) #4
  %2 = call i32 @proto_register_protocol(ptr noundef @.str.9, ptr noundef @.str.10, ptr noundef @.str.11)
  store i32 %2, ptr @proto_vssmonitoring, align 4
  %3 = load i32, ptr @proto_vssmonitoring, align 4
  call void @proto_register_field_array(i32 noundef %3, ptr noundef @proto_register_vssmonitoring.hf, i32 noundef 3)
  call void @proto_register_subtree_array(ptr noundef @proto_register_vssmonitoring.ett, i32 noundef 1)
  %4 = load i32, ptr @proto_vssmonitoring, align 4
  %5 = call ptr @prefs_register_protocol(i32 noundef %4, ptr noundef null)
  store ptr %5, ptr %1, align 8
  %6 = load ptr, ptr %1, align 8
  call void @prefs_register_obsolete_preference(ptr noundef %6, ptr noundef @.str.12)
  %7 = load ptr, ptr %1, align 8
  call void @prefs_register_bool_preference(ptr noundef %7, ptr noundef @.str.13, ptr noundef @.str.14, ptr noundef @.str.15, ptr noundef @vss_dissect_portstamping_only)
  %8 = load ptr, ptr %1, align 8
  call void @prefs_register_bool_preference(ptr noundef %8, ptr noundef @.str.16, ptr noundef @.str.17, ptr noundef @.str.18, ptr noundef @vss_two_byte_portstamps)
  call void @llvm.lifetime.end.p0(i64 8, ptr %1) #4
  ret void
}