; Function Attrs: null_pointer_is_valid sspstrong uwtable
define hidden void @proto_register_vssmonitoring() local_unnamed_addr #0 {
  %1 = tail call i32 @proto_register_protocol(ptr noundef nonnull @.str.9, ptr noundef nonnull @.str.10, ptr noundef nonnull @.str.11)
  store i32 %1, ptr @proto_vssmonitoring, align 4
  tail call void @proto_register_field_array(i32 noundef %1, ptr noundef nonnull @proto_register_vssmonitoring.hf, i32 noundef 3)
  tail call void @proto_register_subtree_array(ptr noundef nonnull @proto_register_vssmonitoring.ett, i32 noundef 1)
  %2 = load i32, ptr @proto_vssmonitoring, align 4
  %3 = tail call ptr @prefs_register_protocol(i32 noundef %2, ptr noundef null)
  tail call void @prefs_register_obsolete_preference(ptr noundef %3, ptr noundef nonnull @.str.12)
  tail call void @prefs_register_bool_preference(ptr noundef %3, ptr noundef nonnull @.str.13, ptr noundef nonnull @.str.14, ptr noundef nonnull @.str.15, ptr noundef nonnull @vss_dissect_portstamping_only)
  tail call void @prefs_register_bool_preference(ptr noundef %3, ptr noundef nonnull @.str.16, ptr noundef nonnull @.str.17, ptr noundef nonnull @.str.18, ptr noundef nonnull @vss_two_byte_portstamps)
  ret void
}